; Function Attrs: mustprogress nofree norecurse nosync nounwind willreturn memory(read, inaccessiblemem: none) uwtable
define noundef range(i32 0, -2147483648) i32 @_ZNK10open_spiel14colored_trails5Trade10DistanceToERKS1_(ptr nocapture noundef nonnull readonly align 8 dereferenceable(48) %0, ptr nocapture noundef nonnull readonly align 8 dereferenceable(48) %1) local_unnamed_addr #7 align 2 {
  %3 = load ptr, ptr %1, align 8
  %4 = getelementptr inbounds nuw i8, ptr %1, i64 8
  %5 = load ptr, ptr %4, align 8
  %6 = icmp eq ptr %3, %5
  br i1 %6, label %.loopexit, label %7

7:                                                ; preds = %2
  %8 = getelementptr inbounds nuw i8, ptr %1, i64 24
  %9 = load ptr, ptr %8, align 8
  %10 = getelementptr inbounds i8, ptr %1, i64 32
  %11 = load ptr, ptr %10, align 8
  %12 = icmp eq ptr %9, %11
  br i1 %12, label %.loopexit, label %.preheader

.preheader:                                       ; preds = %7
  %13 = getelementptr inbounds nuw i8, ptr %0, i64 8
  %14 = load ptr, ptr %13, align 8
  %15 = load ptr, ptr %0, align 8
  %.not = icmp eq ptr %14, %15
  br i1 %.not, label %.loopexit, label %.lr.ph

.lr.ph:                                           ; preds = %.preheader
  %16 = ptrtoint ptr %14 to i64
  %17 = ptrtoint ptr %15 to i64
  %18 = sub i64 %16, %17
  %19 = ashr exact i64 %18, 2
  %20 = getelementptr inbounds nuw i8, ptr %0, i64 24
  %21 = load ptr, ptr %20, align 8
  %umax = tail call i64 @llvm.umax.i64(i64 %19, i64 1)
  br label %22

22:                                               ; preds = %.lr.ph, %22
  %indvars.iv = phi i64 [ 0, %.lr.ph ], [ %indvars.iv.next, %22 ]
  %.01417 = phi i32 [ 0, %.lr.ph ], [ %36, %22 ]
  %23 = getelementptr inbounds i32, ptr %3, i64 %indvars.iv
  %24 = load i32, ptr %23, align 4
  %25 = getelementptr inbounds i32, ptr %15, i64 %indvars.iv
  %26 = load i32, ptr %25, align 4
  %27 = sub nsw i32 %24, %26
  %28 = tail call i32 @llvm.abs.i32(i32 %27, i1 true)
  %29 = add nuw nsw i32 %28, %.01417
  %30 = getelementptr inbounds i32, ptr %9, i64 %indvars.iv
  %31 = load i32, ptr %30, align 4
  %32 = getelementptr inbounds i32, ptr %21, i64 %indvars.iv
  %33 = load i32, ptr %32, align 4
  %34 = sub nsw i32 %31, %33
  %35 = tail call i32 @llvm.abs.i32(i32 %34, i1 true)
  %36 = add nuw nsw i32 %29, %35
  %indvars.iv.next = add nuw nsw i64 %indvars.iv, 1
  %exitcond.not = icmp eq i64 %indvars.iv.next, %umax
  br i1 %exitcond.not, label %.loopexit, label %22, !llvm.loop !44

.loopexit:                                        ; preds = %22, %.preheader, %2, %7
  %.015 = phi i32 [ 41, %7 ], [ 41, %2 ], [ 0, %.preheader ], [ %36, %22 ]
  ret i32 %.015
}